; ModuleID = '31/1790.c'
source_filename = "31/1790.c"
target datalayout = "e-m:e-p270:32:32-p271:32:32-p272:64:64-i64:64-f80:128-n8:16:32:64-S128"
target triple = "x86_64-pc-linux-gnu"

%struct.stu = type { [10 x i8], [20 x i8], i8, i32, [10 x i8], [20 x i8], %struct.stu* }

@.str = private unnamed_addr constant [3 x i8] c"%s\00", align 1
@.str.1 = private unnamed_addr constant [16 x i8] c" %s %c %d %s %s\00", align 1
@.str.2 = private unnamed_addr constant [19 x i8] c"%s %s %c %d %s %s\0A\00", align 1

; Function Attrs: noinline nounwind uwtable
define dso_local i32 @main() #0 {
  %1 = alloca %struct.stu*, align 8
  %2 = alloca %struct.stu*, align 8
  store %struct.stu* null, %struct.stu** %1, align 8
  %3 = call %struct.stu* @creat()
  store %struct.stu* %3, %struct.stu** %1, align 8
  %4 = load %struct.stu*, %struct.stu** %1, align 8
  store %struct.stu* %4, %struct.stu** %2, align 8
  %5 = load %struct.stu*, %struct.stu** %1, align 8
  call void @output(%struct.stu* %5)
  ret i32 0
}

; Function Attrs: noinline nounwind uwtable
define dso_local %struct.stu* @creat() #0 {
  %1 = alloca i32, align 4
  %2 = alloca %struct.stu*, align 8
  %3 = alloca %struct.stu*, align 8
  %4 = alloca %struct.stu*, align 8
  %5 = alloca %struct.stu*, align 8
  store %struct.stu* null, %struct.stu** %5, align 8
  %6 = call noalias i8* @malloc(i64 100) #3
  %7 = bitcast i8* %6 to %struct.stu*
  store %struct.stu* %7, %struct.stu** %2, align 8
  %8 = load %struct.stu*, %struct.stu** %5, align 8
  %9 = icmp eq %struct.stu* %8, null
  br i1 %9, label %10, label %12

10:                                               ; preds = %0
  %11 = load %struct.stu*, %struct.stu** %2, align 8
  store %struct.stu* %11, %struct.stu** %4, align 8
  store %struct.stu* %11, %struct.stu** %3, align 8
  store %struct.stu* %11, %struct.stu** %5, align 8
  br label %12

12:                                               ; preds = %10, %0
  %13 = load %struct.stu*, %struct.stu** %2, align 8
  %14 = getelementptr inbounds %struct.stu, %struct.stu* %13, i32 0, i32 6
  store %struct.stu* null, %struct.stu** %14, align 8
  %15 = load %struct.stu*, %struct.stu** %2, align 8
  %16 = getelementptr inbounds %struct.stu, %struct.stu* %15, i32 0, i32 0
  %17 = getelementptr inbounds [10 x i8], [10 x i8]* %16, i64 0, i64 0
  %18 = call i32 (i8*, ...) @__isoc99_scanf(i8* getelementptr inbounds ([3 x i8], [3 x i8]* @.str, i64 0, i64 0), i8* %17)
  br label %19

19:                                               ; preds = %26, %12
  %20 = load %struct.stu*, %struct.stu** %2, align 8
  %21 = getelementptr inbounds %struct.stu, %struct.stu* %20, i32 0, i32 0
  %22 = getelementptr inbounds [10 x i8], [10 x i8]* %21, i64 0, i64 0
  %23 = load i8, i8* %22, align 8
  %24 = sext i8 %23 to i32
  %25 = icmp ne i32 %24, 101
  br i1 %25, label %26, label %52

26:                                               ; preds = %19
  %27 = load %struct.stu*, %struct.stu** %3, align 8
  store %struct.stu* %27, %struct.stu** %4, align 8
  %28 = load %struct.stu*, %struct.stu** %2, align 8
  %29 = getelementptr inbounds %struct.stu, %struct.stu* %28, i32 0, i32 1
  %30 = getelementptr inbounds [20 x i8], [20 x i8]* %29, i64 0, i64 0
  %31 = load %struct.stu*, %struct.stu** %2, align 8
  %32 = getelementptr inbounds %struct.stu, %struct.stu* %31, i32 0, i32 2
  %33 = load %struct.stu*, %struct.stu** %2, align 8
  %34 = getelementptr inbounds %struct.stu, %struct.stu* %33, i32 0, i32 3
  %35 = load %struct.stu*, %struct.stu** %2, align 8
  %36 = getelementptr inbounds %struct.stu, %struct.stu* %35, i32 0, i32 4
  %37 = getelementptr inbounds [10 x i8], [10 x i8]* %36, i64 0, i64 0
  %38 = load %struct.stu*, %struct.stu** %2, align 8
  %39 = getelementptr inbounds %struct.stu, %struct.stu* %38, i32 0, i32 5
  %40 = getelementptr inbounds [20 x i8], [20 x i8]* %39, i64 0, i64 0
  %41 = call i32 (i8*, ...) @__isoc99_scanf(i8* getelementptr inbounds ([16 x i8], [16 x i8]* @.str.1, i64 0, i64 0), i8* %30, i8* %32, i32* %34, i8* %37, i8* %40)
  %42 = call noalias i8* @malloc(i64 100) #3
  %43 = bitcast i8* %42 to %struct.stu*
  store %struct.stu* %43, %struct.stu** %2, align 8
  %44 = load %struct.stu*, %struct.stu** %3, align 8
  %45 = load %struct.stu*, %struct.stu** %2, align 8
  %46 = getelementptr inbounds %struct.stu, %struct.stu* %45, i32 0, i32 6
  store %struct.stu* %44, %struct.stu** %46, align 8
  %47 = load %struct.stu*, %struct.stu** %2, align 8
  store %struct.stu* %47, %struct.stu** %3, align 8
  %48 = load %struct.stu*, %struct.stu** %2, align 8
  %49 = getelementptr inbounds %struct.stu, %struct.stu* %48, i32 0, i32 0
  %50 = getelementptr inbounds [10 x i8], [10 x i8]* %49, i64 0, i64 0
  %51 = call i32 (i8*, ...) @__isoc99_scanf(i8* getelementptr inbounds ([3 x i8], [3 x i8]* @.str, i64 0, i64 0), i8* %50)
  br label %19

52:                                               ; preds = %19
  %53 = load %struct.stu*, %struct.stu** %4, align 8
  store %struct.stu* %53, %struct.stu** %5, align 8
  %54 = load %struct.stu*, %struct.stu** %5, align 8
  ret %struct.stu* %54
}

; Function Attrs: noinline nounwind uwtable
define dso_local void @output(%struct.stu* %0) #0 {
  %2 = alloca %struct.stu*, align 8
  %3 = alloca %struct.stu*, align 8
  %4 = alloca %struct.stu*, align 8
  store %struct.stu* %0, %struct.stu** %2, align 8
  %5 = load %struct.stu*, %struct.stu** %2, align 8
  store %struct.stu* %5, %struct.stu** %3, align 8
  br label %6

6:                                                ; preds = %9, %1
  %7 = load %struct.stu*, %struct.stu** %3, align 8
  %8 = icmp ne %struct.stu* %7, null
  br i1 %8, label %9, label %33

9:                                                ; preds = %6
  %10 = load %struct.stu*, %struct.stu** %3, align 8
  %11 = getelementptr inbounds %struct.stu, %struct.stu* %10, i32 0, i32 0
  %12 = getelementptr inbounds [10 x i8], [10 x i8]* %11, i64 0, i64 0
  %13 = load %struct.stu*, %struct.stu** %3, align 8
  %14 = getelementptr inbounds %struct.stu, %struct.stu* %13, i32 0, i32 1
  %15 = getelementptr inbounds [20 x i8], [20 x i8]* %14, i64 0, i64 0
  %16 = load %struct.stu*, %struct.stu** %3, align 8
  %17 = getelementptr inbounds %struct.stu, %struct.stu* %16, i32 0, i32 2
  %18 = load i8, i8* %17, align 2
  %19 = sext i8 %18 to i32
  %20 = load %struct.stu*, %struct.stu** %3, align 8
  %21 = getelementptr inbounds %struct.stu, %struct.stu* %20, i32 0, i32 3
  %22 = load i32, i32* %21, align 8
  %23 = load %struct.stu*, %struct.stu** %3, align 8
  %24 = getelementptr inbounds %struct.stu, %struct.stu* %23, i32 0, i32 4
  %25 = getelementptr inbounds [10 x i8], [10 x i8]* %24, i64 0, i64 0
  %26 = load %struct.stu*, %struct.stu** %3, align 8
  %27 = getelementptr inbounds %struct.stu, %struct.stu* %26, i32 0, i32 5
  %28 = getelementptr inbounds [20 x i8], [20 x i8]* %27, i64 0, i64 0
  %29 = call i32 (i8*, ...) @printf(i8* getelementptr inbounds ([19 x i8], [19 x i8]* @.str.2, i64 0, i64 0), i8* %12, i8* %15, i32 %19, i32 %22, i8* %25, i8* %28)
  %30 = load %struct.stu*, %struct.stu** %3, align 8
  %31 = getelementptr inbounds %struct.stu, %struct.stu* %30, i32 0, i32 6
  %32 = load %struct.stu*, %struct.stu** %31, align 8
  store %struct.stu* %32, %struct.stu** %3, align 8
  br label %6

33:                                               ; preds = %6
  ret void
}

; Function Attrs: nounwind
declare dso_local noalias i8* @malloc(i64) #1

declare dso_local i32 @__isoc99_scanf(i8*, ...) #2

declare dso_local i32 @printf(i8*, ...) #2


!llvm.module.flags = !{!0}
!llvm.ident = !{!1}

!0 = !{i32 1, !"wchar_size", i32 4}
!1 = !{!"clang version 10.0.0-4ubuntu1 "}
